target datalayout = "e-m:e-p270:32:32-p271:32:32-p272:64:64-i64:64-i128:128-f80:128-n8:16:32:64-S128"
target triple = "x86_64-pc-linux-gnu"

%class.QAbstractItemModel = type { %class.QObject }
%class.QObject = type { ptr, %class.QScopedPointer }
%class.QScopedPointer = type { ptr }
%class.QString = type { %struct.QArrayDataPointer }
%struct.QArrayDataPointer = type { ptr, ptr, i64 }
%class.QList = type { %struct.QArrayDataPointer.4 }
%struct.QArrayDataPointer.4 = type { ptr, ptr, i64 }
%class.ProfileModel = type { %class.QAbstractTableModel, i32, i32, %class.QList.5, %class.QList, %class.QString, i8, i8, i32 }
%class.QAbstractTableModel = type { %class.QAbstractItemModel }
%class.QList.5 = type { %struct.QArrayDataPointer.8 }
%struct.QArrayDataPointer.8 = type { ptr, ptr, i64 }

; Function Attrs: mustprogress null_pointer_is_valid sspstrong uwtable
define void @_ZN12ProfileModel12doResetModelEb(ptr noundef align 8 dereferenceable_or_null(104) %0, i1 noundef zeroext %1) #0 align 2 {
  %3 = alloca ptr, align 8
  %4 = alloca i8, align 1
  store ptr %0, ptr %3, align 8
  %5 = zext i1 %1 to i8
  store i8 %5, ptr %4, align 1
  %6 = load ptr, ptr %3, align 8
  %7 = getelementptr inbounds nuw %class.ProfileModel, ptr %6, i32 0, i32 6
  store i8 0, ptr %7, align 8
  %8 = load i8, ptr %4, align 1, !range !7, !noundef !8
  %9 = trunc i8 %8 to i1
  br i1 %9, label %10, label %12

10:                                               ; preds = %2
  %11 = getelementptr inbounds nuw %class.ProfileModel, ptr %6, i32 0, i32 7
  store i8 0, ptr %11, align 1
  br label %12

12:                                               ; preds = %10, %2
  call void @_ZN12ProfileModel12loadProfilesEv(ptr noundef align 8 dereferenceable_or_null(104) %6)
  ret void
}