; Function Attrs: mustprogress null_pointer_is_valid sspstrong uwtable
define void @_ZN12ProfileModel12doResetModelEb(ptr noundef align 8 dereferenceable_or_null(104) initializes((96, 97)) %0, i1 noundef zeroext %1) local_unnamed_addr #0 align 2 {
  %3 = getelementptr inbounds nuw i8, ptr %0, i64 96
  store i8 0, ptr %3, align 8
  br i1 %1, label %4, label %6

4:                                                ; preds = %2
  %5 = getelementptr inbounds nuw i8, ptr %0, i64 97
  store i8 0, ptr %5, align 1
  br label %6

6:                                                ; preds = %4, %2
  tail call void @_ZN12ProfileModel12loadProfilesEv(ptr noundef align 8 dereferenceable_or_null(104) %0)
  ret void
}